; Function Attrs: mustprogress nounwind uwtable
define hidden void @_ZN9CodeCache16free_unused_tailEP8CodeBlobm(ptr noundef %0, i64 noundef %1) local_unnamed_addr #1 align 2 {
  %3 = getelementptr inbounds i8, ptr %0, i64 52
  %4 = load i8, ptr %3, align 4
  %5 = icmp eq i8 %4, 2
  br i1 %5, label %6, label %11

6:                                                ; preds = %2
  %7 = getelementptr inbounds i8, ptr %0, i64 16
  %8 = load ptr, ptr %7, align 8
  %9 = tail call i32 @strncmp(ptr noundef nonnull dereferenceable(12) @.str.32, ptr noundef nonnull dereferenceable(1) %8, i64 noundef 11) #21
  %10 = icmp eq i32 %9, 0
  br i1 %10, label %13, label %11

11:                                               ; preds = %6, %2
  %12 = load ptr, ptr @g_assert_poison, align 8
  store i8 88, ptr %12, align 1
  tail call void (ptr, i32, ptr, ptr, ...) @_Z15report_vm_errorPKciS0_S0_z(ptr noundef nonnull @.str.28, i32 noundef 598, ptr noundef nonnull @.str.33, ptr noundef nonnull @.str.34) #22
  unreachable

13:                                               ; preds = %6
  %14 = getelementptr inbounds i8, ptr %0, i64 48
  %15 = load i16, ptr %14, align 8
  %16 = zext i16 %15 to i32
  %17 = tail call noundef i32 @_ZN8CodeBlob17align_code_offsetEi(i32 noundef %16) #20
  %18 = load ptr, ptr @_ZN9CodeCache6_heapsE, align 8
  %19 = load i32, ptr %18, align 4
  %.not9.i = icmp eq i32 %19, 0
  br i1 %.not9.i, label %._crit_edge.i, label %.lr.ph.i

.lr.ph.i:                                         ; preds = %13
  %20 = getelementptr inbounds i8, ptr %18, i64 8
  %21 = load ptr, ptr %20, align 8
  %22 = zext i32 %19 to i64
  br label %24

23:                                               ; preds = %24
  %indvars.iv.next.i = add nuw nsw i64 %indvars.iv.i, 1
  %.not.i = icmp eq i64 %indvars.iv.next.i, %22
  br i1 %.not.i, label %._crit_edge.i, label %24, !llvm.loop !22

24:                                               ; preds = %23, %.lr.ph.i
  %indvars.iv.i = phi i64 [ 0, %.lr.ph.i ], [ %indvars.iv.next.i, %23 ]
  %25 = getelementptr inbounds ptr, ptr %21, i64 %indvars.iv.i
  %26 = load ptr, ptr %25, align 8
  %27 = getelementptr inbounds i8, ptr %26, i64 16
  %28 = load ptr, ptr %27, align 8
  %.not.i.i = icmp ule ptr %28, %0
  %29 = getelementptr inbounds i8, ptr %26, i64 24
  %30 = load ptr, ptr %29, align 8
  %31 = icmp ugt ptr %30, %0
  %32 = select i1 %.not.i.i, i1 %31, i1 false
  br i1 %32, label %_ZN9CodeCache13get_code_heapEPKv.exit, label %23

._crit_edge.i:                                    ; preds = %23, %13
  %33 = load ptr, ptr @g_assert_poison, align 8
  store i8 88, ptr %33, align 1
  tail call void @_Z28report_should_not_reach_herePKci(ptr noundef nonnull @.str.28, i32 noundef 462) #22
  unreachable

_ZN9CodeCache13get_code_heapEPKv.exit:            ; preds = %24
  %34 = zext i32 %17 to i64
  %35 = add i64 %34, %1
  tail call void @_ZN8CodeHeap15deallocate_tailEPvm(ptr noundef nonnull align 8 dereferenceable(336) %26, ptr noundef nonnull %0, i64 noundef %35) #20
  %36 = trunc i64 %35 to i32
  %37 = getelementptr inbounds i8, ptr %0, i64 24
  store i32 %36, ptr %37, align 8
  %38 = getelementptr inbounds i8, ptr %0, i64 40
  store i32 %36, ptr %38, align 8
  ret void
}